; Function Attrs: nofree norecurse nosync nounwind memory(argmem: readwrite) uwtable
define internal void @hor_up_8x8_c(ptr noundef writeonly captures(none) %0, i64 noundef %1, ptr noundef readonly captures(none) %2, ptr readnone captures(none) %3) #2 {
  %5 = alloca [14 x i8], align 1
  call void @llvm.lifetime.start.p0(i64 14, ptr nonnull %5) #13
  %.pre = load i8, ptr %2, align 1, !tbaa !8
  %invariant.gep = getelementptr inbounds nuw i8, ptr %2, i64 2
  br label %6

6:                                                ; preds = %4, %6
  %7 = phi i8 [ %.pre, %4 ], [ %10, %6 ]
  %indvars.iv = phi i64 [ 0, %4 ], [ %indvars.iv.next, %6 ]
  %8 = zext i8 %7 to i16
  %indvars.iv.next = add nuw nsw i64 %indvars.iv, 1
  %9 = getelementptr inbounds nuw i8, ptr %2, i64 %indvars.iv.next
  %10 = load i8, ptr %9, align 1, !tbaa !8
  %11 = zext i8 %10 to i16
  %12 = add nuw nsw i16 %8, 1
  %13 = add nuw nsw i16 %12, %11
  %14 = lshr i16 %13, 1
  %15 = trunc nuw i16 %14 to i8
  %16 = shl nuw nsw i64 %indvars.iv, 1
  %17 = getelementptr inbounds nuw [14 x i8], ptr %5, i64 0, i64 %16
  store i8 %15, ptr %17, align 1, !tbaa !8
  %18 = shl nuw nsw i16 %11, 1
  %gep = getelementptr inbounds nuw i8, ptr %invariant.gep, i64 %indvars.iv
  %19 = load i8, ptr %gep, align 1, !tbaa !8
  %20 = zext i8 %19 to i16
  %21 = add nuw nsw i16 %8, 2
  %22 = add nuw nsw i16 %21, %18
  %23 = add nuw nsw i16 %22, %20
  %24 = lshr i16 %23, 2
  %25 = trunc nuw i16 %24 to i8
  %26 = or disjoint i64 %16, 1
  %27 = getelementptr inbounds nuw [14 x i8], ptr %5, i64 0, i64 %26
  store i8 %25, ptr %27, align 1, !tbaa !8
  %exitcond.not = icmp eq i64 %indvars.iv.next, 6
  br i1 %exitcond.not, label %28, label %6, !llvm.loop !25

28:                                               ; preds = %6
  %29 = getelementptr inbounds nuw i8, ptr %2, i64 6
  %30 = load i8, ptr %29, align 1, !tbaa !8
  %31 = zext i8 %30 to i16
  %32 = getelementptr inbounds nuw i8, ptr %2, i64 7
  %33 = load i8, ptr %32, align 1, !tbaa !8
  %34 = zext i8 %33 to i16
  %35 = add nuw nsw i16 %31, 1
  %36 = add nuw nsw i16 %35, %34
  %37 = lshr i16 %36, 1
  %38 = trunc nuw i16 %37 to i8
  %39 = getelementptr inbounds nuw i8, ptr %5, i64 12
  store i8 %38, ptr %39, align 1, !tbaa !8
  %40 = mul nuw nsw i16 %34, 3
  %41 = add nuw nsw i16 %31, 2
  %42 = add nuw nsw i16 %41, %40
  %43 = lshr i16 %42, 2
  %44 = trunc nuw i16 %43 to i8
  %45 = getelementptr inbounds nuw i8, ptr %5, i64 13
  store i8 %44, ptr %45, align 1, !tbaa !8
  br label %46

46:                                               ; preds = %28, %46
  %indvars.iv44 = phi i64 [ 0, %28 ], [ %indvars.iv.next45, %46 ]
  %47 = mul nsw i64 %1, %indvars.iv44
  %48 = getelementptr inbounds i8, ptr %0, i64 %47
  %49 = shl nuw nsw i64 %indvars.iv44, 1
  %50 = getelementptr inbounds nuw i8, ptr %5, i64 %49
  %51 = load i64, ptr %50, align 1
  store i64 %51, ptr %48, align 1
  %indvars.iv.next45 = add nuw nsw i64 %indvars.iv44, 1
  %exitcond47.not = icmp eq i64 %indvars.iv.next45, 4
  br i1 %exitcond47.not, label %.preheader, label %46, !llvm.loop !26

.preheader:                                       ; preds = %46, %.preheader
  %indvars.iv48 = phi i64 [ %indvars.iv.next49, %.preheader ], [ 4, %46 ]
  %52 = mul nsw i64 %1, %indvars.iv48
  %53 = getelementptr inbounds i8, ptr %0, i64 %52
  %54 = shl nuw nsw i64 %indvars.iv48, 1
  %55 = getelementptr inbounds nuw i8, ptr %5, i64 %54
  %56 = sub nuw nsw i64 14, %54
  call void @llvm.memcpy.p0.p0.i64(ptr align 1 %53, ptr nonnull align 1 %55, i64 %56, i1 false)
  %57 = getelementptr inbounds nuw i8, ptr %53, i64 14
  %58 = sub nsw i64 0, %54
  %59 = getelementptr inbounds i8, ptr %57, i64 %58
  %60 = load i8, ptr %32, align 1, !tbaa !8
  %61 = add nsw i64 %54, -6
  tail call void @llvm.memset.p0.i64(ptr nonnull align 1 %59, i8 %60, i64 %61, i1 false)
  %indvars.iv.next49 = add nuw nsw i64 %indvars.iv48, 1
  %exitcond51.not = icmp eq i64 %indvars.iv.next49, 8
  br i1 %exitcond51.not, label %62, label %.preheader, !llvm.loop !27

62:                                               ; preds = %.preheader
  call void @llvm.lifetime.end.p0(i64 14, ptr nonnull %5) #13
  ret void
}